target datalayout = "e-m:e-p270:32:32-p271:32:32-p272:64:64-i64:64-i128:128-f80:128-n8:16:32:64-S128"
target triple = "x86_64-pc-linux-gnu"

%struct.pseudo_merge_group = type { ptr, %struct.strmap, ptr, i64, i64, double, i32, double, i32, i64, i64 }
%struct.strmap = type { %struct.hashmap, ptr, i8 }
%struct.hashmap = type { ptr, ptr, ptr, i32, i32, i32, i32, i8 }
%struct.string_list = type { ptr, i64, i64, i8, ptr }
%struct.string_list_item = type { ptr, ptr }

@.str = private unnamed_addr constant [49 x i8] c"pseudo-merge group '%s' missing required pattern\00", align 1
@.str.1 = private unnamed_addr constant [65 x i8] c"pseudo-merge group '%s' has unstable threshold before stable one\00", align 1

; Function Attrs: nounwind uwtable
define dso_local void @load_pseudo_merges_from_config(ptr noundef %0, ptr noundef %1) #0 {
  %3 = alloca ptr, align 8
  %4 = alloca ptr, align 8
  %5 = alloca ptr, align 8
  %6 = alloca ptr, align 8
  store ptr %0, ptr %3, align 8, !tbaa !41
  store ptr %1, ptr %4, align 8, !tbaa !43
  call void @llvm.lifetime.start.p0(i64 8, ptr %5) #10
  %7 = load ptr, ptr %3, align 8, !tbaa !41
  %8 = load ptr, ptr %4, align 8, !tbaa !43
  call void @repo_config(ptr noundef %7, ptr noundef @pseudo_merge_config, ptr noundef %8)
  %9 = load ptr, ptr %4, align 8, !tbaa !43
  %10 = getelementptr inbounds nuw %struct.string_list, ptr %9, i32 0, i32 0
  %11 = load ptr, ptr %10, align 8, !tbaa !45
  store ptr %11, ptr %5, align 8, !tbaa !48
  br label %12

12:                                               ; preds = %54, %2
  %13 = load ptr, ptr %5, align 8, !tbaa !48
  %14 = icmp ne ptr %13, null
  br i1 %14, label %15, label %25

15:                                               ; preds = %12
  %16 = load ptr, ptr %5, align 8, !tbaa !48
  %17 = load ptr, ptr %4, align 8, !tbaa !43
  %18 = getelementptr inbounds nuw %struct.string_list, ptr %17, i32 0, i32 0
  %19 = load ptr, ptr %18, align 8, !tbaa !45
  %20 = load ptr, ptr %4, align 8, !tbaa !43
  %21 = getelementptr inbounds nuw %struct.string_list, ptr %20, i32 0, i32 1
  %22 = load i64, ptr %21, align 8, !tbaa !49
  %23 = getelementptr inbounds nuw %struct.string_list_item, ptr %19, i64 %22
  %24 = icmp ult ptr %16, %23
  br label %25

25:                                               ; preds = %15, %12
  %26 = phi i1 [ false, %12 ], [ %24, %15 ]
  br i1 %26, label %27, label %57

27:                                               ; preds = %25
  call void @llvm.lifetime.start.p0(i64 8, ptr %6) #10
  %28 = load ptr, ptr %5, align 8, !tbaa !48
  %29 = getelementptr inbounds nuw %struct.string_list_item, ptr %28, i32 0, i32 1
  %30 = load ptr, ptr %29, align 8, !tbaa !50
  store ptr %30, ptr %6, align 8, !tbaa !4
  %31 = load ptr, ptr %6, align 8, !tbaa !4
  %32 = getelementptr inbounds nuw %struct.pseudo_merge_group, ptr %31, i32 0, i32 0
  %33 = load ptr, ptr %32, align 8, !tbaa !9
  %34 = icmp ne ptr %33, null
  br i1 %34, label %40, label %35

35:                                               ; preds = %27
  %36 = call ptr @_(ptr noundef @.str)
  %37 = load ptr, ptr %5, align 8, !tbaa !48
  %38 = getelementptr inbounds nuw %struct.string_list_item, ptr %37, i32 0, i32 0
  %39 = load ptr, ptr %38, align 8, !tbaa !52
  call void (ptr, ...) @die(ptr noundef %36, ptr noundef %39) #11
  unreachable

40:                                               ; preds = %27
  %41 = load ptr, ptr %6, align 8, !tbaa !4
  %42 = getelementptr inbounds nuw %struct.pseudo_merge_group, ptr %41, i32 0, i32 9
  %43 = load i64, ptr %42, align 8, !tbaa !53
  %44 = load ptr, ptr %6, align 8, !tbaa !4
  %45 = getelementptr inbounds nuw %struct.pseudo_merge_group, ptr %44, i32 0, i32 10
  %46 = load i64, ptr %45, align 8, !tbaa !54
  %47 = icmp ult i64 %43, %46
  br i1 %47, label %48, label %53

48:                                               ; preds = %40
  %49 = call ptr @_(ptr noundef @.str.1)
  %50 = load ptr, ptr %5, align 8, !tbaa !48
  %51 = getelementptr inbounds nuw %struct.string_list_item, ptr %50, i32 0, i32 0
  %52 = load ptr, ptr %51, align 8, !tbaa !52
  call void (ptr, ...) @die(ptr noundef %49, ptr noundef %52) #11
  unreachable

53:                                               ; preds = %40
  call void @llvm.lifetime.end.p0(i64 8, ptr %6) #10
  br label %54

54:                                               ; preds = %53
  %55 = load ptr, ptr %5, align 8, !tbaa !48
  %56 = getelementptr inbounds nuw %struct.string_list_item, ptr %55, i32 1
  store ptr %56, ptr %5, align 8, !tbaa !48
  br label %12, !llvm.loop !55

57:                                               ; preds = %25
  call void @llvm.lifetime.end.p0(i64 8, ptr %5) #10
  ret void
}