; Function Attrs: nounwind uwtable
define dso_local void @load_pseudo_merges_from_config(ptr noundef %0, ptr noundef %1) local_unnamed_addr #0 {
  tail call void @repo_config(ptr noundef %0, ptr noundef nonnull @pseudo_merge_config, ptr noundef %1) #15
  %3 = load ptr, ptr %1, align 8, !tbaa !29
  %.not17 = icmp eq ptr %3, null
  br i1 %.not17, label %.critedge, label %.lr.ph

.lr.ph:                                           ; preds = %2
  %4 = getelementptr inbounds nuw i8, ptr %1, i64 8
  %5 = load i64, ptr %4, align 8, !tbaa !32
  %6 = getelementptr inbounds nuw %struct.string_list_item, ptr %3, i64 %5
  %.not = icmp eq i64 %5, 0
  br i1 %.not, label %.critedge, label %.lr.ph27

.lr.ph27:                                         ; preds = %.lr.ph, %22
  %.01826 = phi ptr [ %23, %22 ], [ %3, %.lr.ph ]
  %7 = getelementptr inbounds nuw i8, ptr %.01826, i64 8
  %8 = load ptr, ptr %7, align 8, !tbaa !33
  %9 = load ptr, ptr %8, align 8, !tbaa !4
  %.not14 = icmp eq ptr %9, null
  br i1 %.not14, label %10, label %13

10:                                               ; preds = %.lr.ph27
  %11 = tail call fastcc ptr @_(ptr noundef nonnull @.str)
  %12 = load ptr, ptr %.01826, align 8, !tbaa !35
  tail call void (ptr, ...) @die(ptr noundef %11, ptr noundef %12) #16
  unreachable

13:                                               ; preds = %.lr.ph27
  %14 = getelementptr inbounds nuw i8, ptr %8, i64 128
  %15 = load i64, ptr %14, align 8, !tbaa !36
  %16 = getelementptr inbounds nuw i8, ptr %8, i64 136
  %17 = load i64, ptr %16, align 8, !tbaa !37
  %18 = icmp ult i64 %15, %17
  br i1 %18, label %19, label %22

19:                                               ; preds = %13
  %20 = tail call fastcc ptr @_(ptr noundef nonnull @.str.1)
  %21 = load ptr, ptr %.01826, align 8, !tbaa !35
  tail call void (ptr, ...) @die(ptr noundef %20, ptr noundef %21) #16
  unreachable

22:                                               ; preds = %13
  %23 = getelementptr inbounds nuw i8, ptr %.01826, i64 16
  %24 = icmp ult ptr %23, %6
  br i1 %24, label %.lr.ph27, label %.critedge

.critedge:                                        ; preds = %22, %.lr.ph, %2
  ret void
}